target datalayout = "e-m:e-p270:32:32-p271:32:32-p272:64:64-i64:64-i128:128-f80:128-n8:16:32:64-S128"
target triple = "x86_64-pc-linux-gnu"

%struct._fvalue_t = type { ptr, %union.anon.1 }
%union.anon.1 = type { %struct._protocol_value_t }
%struct._protocol_value_t = type { ptr, i32, ptr, i8 }

@g_ascii_table = external constant ptr, align 8

; Function Attrs: null_pointer_is_valid sspstrong uwtable
define internal ptr @char_to_repr(ptr noundef %0, ptr noundef %1, i32 noundef %2, i32 noundef %3) #0 {
  %5 = alloca ptr, align 8
  %6 = alloca ptr, align 8
  %7 = alloca i32, align 4
  %8 = alloca i32, align 4
  %9 = alloca i64, align 8
  %10 = alloca ptr, align 8
  %11 = alloca ptr, align 8
  store ptr %0, ptr %5, align 8
  store ptr %1, ptr %6, align 8
  store i32 %2, ptr %7, align 4
  store i32 %3, ptr %8, align 4
  call void @llvm.lifetime.start.p0(i64 8, ptr %9) #10
  store i64 8, ptr %9, align 8
  call void @llvm.lifetime.start.p0(i64 8, ptr %10) #10
  %12 = load ptr, ptr %5, align 8
  %13 = load i64, ptr %9, align 8
  %14 = call noalias ptr @wmem_alloc(ptr noundef %12, i64 noundef %13) #11
  store ptr %14, ptr %10, align 8
  call void @llvm.lifetime.start.p0(i64 8, ptr %11) #10
  %15 = load ptr, ptr %10, align 8
  store ptr %15, ptr %11, align 8
  %16 = load ptr, ptr %11, align 8
  %17 = getelementptr i8, ptr %16, i32 1
  store ptr %17, ptr %11, align 8
  store i8 39, ptr %16, align 1
  %18 = load ptr, ptr @g_ascii_table, align 8
  %19 = load ptr, ptr %6, align 8
  %20 = getelementptr inbounds nuw %struct._fvalue_t, ptr %19, i32 0, i32 1
  %21 = load i64, ptr %20, align 8
  %22 = trunc i64 %21 to i8
  %23 = zext i8 %22 to i64
  %24 = getelementptr i16, ptr %18, i64 %23
  %25 = load i16, ptr %24, align 2
  %26 = zext i16 %25 to i32
  %27 = and i32 %26, 64
  %28 = icmp ne i32 %27, 0
  br i1 %28, label %29, label %49

29:                                               ; preds = %4
  %30 = load ptr, ptr %6, align 8
  %31 = getelementptr inbounds nuw %struct._fvalue_t, ptr %30, i32 0, i32 1
  %32 = load i64, ptr %31, align 8
  %33 = icmp eq i64 %32, 92
  br i1 %33, label %39, label %34

34:                                               ; preds = %29
  %35 = load ptr, ptr %6, align 8
  %36 = getelementptr inbounds nuw %struct._fvalue_t, ptr %35, i32 0, i32 1
  %37 = load i64, ptr %36, align 8
  %38 = icmp eq i64 %37, 39
  br i1 %38, label %39, label %42

39:                                               ; preds = %34, %29
  %40 = load ptr, ptr %11, align 8
  %41 = getelementptr i8, ptr %40, i32 1
  store ptr %41, ptr %11, align 8
  store i8 92, ptr %40, align 1
  br label %42

42:                                               ; preds = %39, %34
  %43 = load ptr, ptr %6, align 8
  %44 = getelementptr inbounds nuw %struct._fvalue_t, ptr %43, i32 0, i32 1
  %45 = load i64, ptr %44, align 8
  %46 = trunc i64 %45 to i8
  %47 = load ptr, ptr %11, align 8
  %48 = getelementptr i8, ptr %47, i32 1
  store ptr %48, ptr %11, align 8
  store i8 %46, ptr %47, align 1
  br label %121

49:                                               ; preds = %4
  %50 = load ptr, ptr %11, align 8
  %51 = getelementptr i8, ptr %50, i32 1
  store ptr %51, ptr %11, align 8
  store i8 92, ptr %50, align 1
  %52 = load ptr, ptr %6, align 8
  %53 = getelementptr inbounds nuw %struct._fvalue_t, ptr %52, i32 0, i32 1
  %54 = load i64, ptr %53, align 8
  switch i64 %54, label %79 [
    i64 0, label %55
    i64 7, label %58
    i64 8, label %61
    i64 12, label %64
    i64 10, label %67
    i64 13, label %70
    i64 9, label %73
    i64 11, label %76
  ]

55:                                               ; preds = %49
  %56 = load ptr, ptr %11, align 8
  %57 = getelementptr i8, ptr %56, i32 1
  store ptr %57, ptr %11, align 8
  store i8 48, ptr %56, align 1
  br label %120

58:                                               ; preds = %49
  %59 = load ptr, ptr %11, align 8
  %60 = getelementptr i8, ptr %59, i32 1
  store ptr %60, ptr %11, align 8
  store i8 97, ptr %59, align 1
  br label %120

61:                                               ; preds = %49
  %62 = load ptr, ptr %11, align 8
  %63 = getelementptr i8, ptr %62, i32 1
  store ptr %63, ptr %11, align 8
  store i8 98, ptr %62, align 1
  br label %120

64:                                               ; preds = %49
  %65 = load ptr, ptr %11, align 8
  %66 = getelementptr i8, ptr %65, i32 1
  store ptr %66, ptr %11, align 8
  store i8 102, ptr %65, align 1
  br label %120

67:                                               ; preds = %49
  %68 = load ptr, ptr %11, align 8
  %69 = getelementptr i8, ptr %68, i32 1
  store ptr %69, ptr %11, align 8
  store i8 110, ptr %68, align 1
  br label %120

70:                                               ; preds = %49
  %71 = load ptr, ptr %11, align 8
  %72 = getelementptr i8, ptr %71, i32 1
  store ptr %72, ptr %11, align 8
  store i8 114, ptr %71, align 1
  br label %120

73:                                               ; preds = %49
  %74 = load ptr, ptr %11, align 8
  %75 = getelementptr i8, ptr %74, i32 1
  store ptr %75, ptr %11, align 8
  store i8 116, ptr %74, align 1
  br label %120

76:                                               ; preds = %49
  %77 = load ptr, ptr %11, align 8
  %78 = getelementptr i8, ptr %77, i32 1
  store ptr %78, ptr %11, align 8
  store i8 118, ptr %77, align 1
  br label %120

79:                                               ; preds = %49
  %80 = load i32, ptr %8, align 4
  %81 = icmp eq i32 %80, 2
  br i1 %81, label %82, label %91

82:                                               ; preds = %79
  %83 = load ptr, ptr %11, align 8
  %84 = getelementptr i8, ptr %83, i32 1
  store ptr %84, ptr %11, align 8
  store i8 120, ptr %83, align 1
  %85 = load ptr, ptr %11, align 8
  %86 = load ptr, ptr %6, align 8
  %87 = getelementptr inbounds nuw %struct._fvalue_t, ptr %86, i32 0, i32 1
  %88 = load i64, ptr %87, align 8
  %89 = trunc i64 %88 to i8
  %90 = call ptr @uint8_to_hex(ptr noundef %85, i8 noundef zeroext %89)
  store ptr %90, ptr %11, align 8
  br label %119

91:                                               ; preds = %79
  %92 = load ptr, ptr %6, align 8
  %93 = getelementptr inbounds nuw %struct._fvalue_t, ptr %92, i32 0, i32 1
  %94 = load i64, ptr %93, align 8
  %95 = lshr i64 %94, 6
  %96 = and i64 %95, 7
  %97 = add i64 %96, 48
  %98 = trunc i64 %97 to i8
  %99 = load ptr, ptr %11, align 8
  %100 = getelementptr i8, ptr %99, i32 1
  store ptr %100, ptr %11, align 8
  store i8 %98, ptr %99, align 1
  %101 = load ptr, ptr %6, align 8
  %102 = getelementptr inbounds nuw %struct._fvalue_t, ptr %101, i32 0, i32 1
  %103 = load i64, ptr %102, align 8
  %104 = lshr i64 %103, 3
  %105 = and i64 %104, 7
  %106 = add i64 %105, 48
  %107 = trunc i64 %106 to i8
  %108 = load ptr, ptr %11, align 8
  %109 = getelementptr i8, ptr %108, i32 1
  store ptr %109, ptr %11, align 8
  store i8 %107, ptr %108, align 1
  %110 = load ptr, ptr %6, align 8
  %111 = getelementptr inbounds nuw %struct._fvalue_t, ptr %110, i32 0, i32 1
  %112 = load i64, ptr %111, align 8
  %113 = lshr i64 %112, 0
  %114 = and i64 %113, 7
  %115 = add i64 %114, 48
  %116 = trunc i64 %115 to i8
  %117 = load ptr, ptr %11, align 8
  %118 = getelementptr i8, ptr %117, i32 1
  store ptr %118, ptr %11, align 8
  store i8 %116, ptr %117, align 1
  br label %119

119:                                              ; preds = %91, %82
  br label %120

120:                                              ; preds = %119, %76, %73, %70, %67, %64, %61, %58, %55
  br label %121

121:                                              ; preds = %120, %42
  %122 = load ptr, ptr %11, align 8
  %123 = getelementptr i8, ptr %122, i32 1
  store ptr %123, ptr %11, align 8
  store i8 39, ptr %122, align 1
  %124 = load ptr, ptr %11, align 8
  %125 = getelementptr i8, ptr %124, i32 1
  store ptr %125, ptr %11, align 8
  store i8 0, ptr %124, align 1
  %126 = load ptr, ptr %10, align 8
  call void @llvm.lifetime.end.p0(i64 8, ptr %11) #10
  call void @llvm.lifetime.end.p0(i64 8, ptr %10) #10
  call void @llvm.lifetime.end.p0(i64 8, ptr %9) #10
  ret ptr %126
}