; Function Attrs: null_pointer_is_valid sspstrong uwtable
define internal noundef ptr @char_to_repr(ptr noundef %0, ptr noundef readonly captures(none) %1, i32 %2, i32 noundef %3) #0 {
  %5 = tail call noalias dereferenceable_or_null(8) ptr @wmem_alloc(ptr noundef %0, i64 noundef 8) #12
  %6 = getelementptr i8, ptr %5, i64 1
  store i8 39, ptr %5, align 1
  %7 = load ptr, ptr @g_ascii_table, align 8
  %8 = getelementptr inbounds nuw i8, ptr %1, i64 8
  %9 = load i64, ptr %8, align 8
  %10 = and i64 %9, 255
  %11 = getelementptr i16, ptr %7, i64 %10
  %12 = load i16, ptr %11, align 2
  %13 = and i16 %12, 64
  %.not = icmp eq i16 %13, 0
  br i1 %.not, label %20, label %14

14:                                               ; preds = %4
  switch i64 %9, label %17 [
    i64 92, label %15
    i64 39, label %15
  ]

15:                                               ; preds = %14, %14
  %16 = getelementptr i8, ptr %5, i64 2
  store i8 92, ptr %6, align 1
  br label %17

17:                                               ; preds = %14, %15
  %.0 = phi ptr [ %16, %15 ], [ %6, %14 ]
  %18 = trunc i64 %9 to i8
  %19 = getelementptr i8, ptr %.0, i64 1
  store i8 %18, ptr %.0, align 1
  br label %58

20:                                               ; preds = %4
  %21 = getelementptr i8, ptr %5, i64 2
  store i8 92, ptr %6, align 1
  switch i64 %9, label %38 [
    i64 0, label %22
    i64 7, label %24
    i64 8, label %26
    i64 12, label %28
    i64 10, label %30
    i64 13, label %32
    i64 9, label %34
    i64 11, label %36
  ]

22:                                               ; preds = %20
  %23 = getelementptr i8, ptr %5, i64 3
  store i8 48, ptr %21, align 1
  br label %58

24:                                               ; preds = %20
  %25 = getelementptr i8, ptr %5, i64 3
  store i8 97, ptr %21, align 1
  br label %58

26:                                               ; preds = %20
  %27 = getelementptr i8, ptr %5, i64 3
  store i8 98, ptr %21, align 1
  br label %58

28:                                               ; preds = %20
  %29 = getelementptr i8, ptr %5, i64 3
  store i8 102, ptr %21, align 1
  br label %58

30:                                               ; preds = %20
  %31 = getelementptr i8, ptr %5, i64 3
  store i8 110, ptr %21, align 1
  br label %58

32:                                               ; preds = %20
  %33 = getelementptr i8, ptr %5, i64 3
  store i8 114, ptr %21, align 1
  br label %58

34:                                               ; preds = %20
  %35 = getelementptr i8, ptr %5, i64 3
  store i8 116, ptr %21, align 1
  br label %58

36:                                               ; preds = %20
  %37 = getelementptr i8, ptr %5, i64 3
  store i8 118, ptr %21, align 1
  br label %58

38:                                               ; preds = %20
  %39 = icmp eq i32 %3, 2
  br i1 %39, label %40, label %44

40:                                               ; preds = %38
  %41 = getelementptr i8, ptr %5, i64 3
  store i8 120, ptr %21, align 1
  %42 = trunc i64 %9 to i8
  %43 = tail call ptr @uint8_to_hex(ptr noundef %41, i8 noundef zeroext %42)
  br label %58

44:                                               ; preds = %38
  %45 = lshr i64 %9, 6
  %46 = trunc i64 %45 to i8
  %47 = and i8 %46, 7
  %48 = or disjoint i8 %47, 48
  %49 = getelementptr i8, ptr %5, i64 3
  store i8 %48, ptr %21, align 1
  %50 = trunc i64 %9 to i8
  %51 = lshr i8 %50, 3
  %52 = and i8 %51, 7
  %53 = or disjoint i8 %52, 48
  %54 = getelementptr i8, ptr %5, i64 4
  store i8 %53, ptr %49, align 1
  %55 = and i8 %50, 7
  %56 = or disjoint i8 %55, 48
  %57 = getelementptr i8, ptr %5, i64 5
  store i8 %56, ptr %54, align 1
  br label %58

58:                                               ; preds = %22, %24, %26, %28, %30, %32, %34, %36, %44, %40, %17
  %.1 = phi ptr [ %19, %17 ], [ %43, %40 ], [ %57, %44 ], [ %37, %36 ], [ %35, %34 ], [ %33, %32 ], [ %31, %30 ], [ %29, %28 ], [ %27, %26 ], [ %25, %24 ], [ %23, %22 ]
  %59 = getelementptr i8, ptr %.1, i64 1
  store i8 39, ptr %.1, align 1
  store i8 0, ptr %59, align 1
  ret ptr %5
}